Certificate:
    Data:
        Version: 3 (0x2)
        Serial Number: 30 (0x1e)
    Signature Algorithm: sha256WithRSAEncryption
        Issuer: C=US, ST=Iowa, L=Ames, O=331.com, OU=homework, CN=certs.homework.331.com/emailAddress=certs@homework.331.com
        Validity
            Not Before: Oct 29 21:22:02 2023 GMT
            Not After : Oct 28 21:22:02 2024 GMT
        Subject: C=US, ST=Iowa, O=331.com, OU=homework, CN=rjlawson.homework.331.com/emailAddress=rjlawson@homework.331.com
        Subject Public Key Info:
            Public Key Algorithm: rsaEncryption
                Public-Key: (2048 bit)
                Modulus:
                    00:84:98:70:59:33:00:7f:7a:64:d5:b7:d7:35:56:
                    84:09:10:bd:81:50:53:12:42:37:ce:6d:df:78:1c:
                    0e:2e:2c:9f:4a:c0:63:c3:ad:49:73:2f:67:3b:3f:
                    fe:c3:5d:55:04:0e:b3:9d:62:c1:e8:93:30:8d:b8:
                    d9:93:bf:0c:44:46:72:21:68:fa:bf:a8:9b:51:e0:
                    bc:83:32:dd:fe:59:0c:b4:df:f4:18:f2:27:e0:15:
                    f3:67:35:f5:56:99:b0:08:e0:73:ef:0f:d0:ec:b3:
                    7d:93:8c:d8:ee:21:86:15:d3:0a:be:84:36:bd:f8:
                    32:55:c9:7c:b7:83:c7:01:ba:bf:d3:8f:70:ff:3f:
                    c7:85:64:3e:3f:53:af:39:e1:2a:d4:c0:f4:de:e5:
                    7b:75:5e:10:0f:ad:d9:33:a2:2a:d1:32:02:3a:47:
                    87:00:59:4f:ef:04:39:5f:e0:14:44:0b:62:4b:88:
                    78:3f:4f:b9:03:b3:67:37:d2:66:88:54:dd:b3:7f:
                    3d:71:fc:87:78:07:2e:42:b8:f7:3e:34:a3:1d:7f:
                    0f:a2:55:86:dd:68:64:8c:f1:f4:0a:02:03:2d:39:
                    6a:6e:19:40:58:96:ac:9d:2c:1e:2a:82:d0:a8:c9:
                    a0:84:d5:12:06:47:73:2c:a9:b0:a3:2d:fa:9b:08:
                    a2:b1
                Exponent: 65537 (0x10001)
        X509v3 extensions:
            X509v3 Basic Constraints: 
                CA:FALSE
            Netscape Comment: 
                OpenSSL Generated Certificate
            X509v3 Subject Key Identifier: 
                26:BB:3C:B2:B9:18:BB:2A:44:9A:74:AE:D2:C3:5F:E0:CC:59:D9:54
            X509v3 Authority Key Identifier: 
                keyid:B1:58:E4:C8:15:C0:A2:DB:95:C9:1B:69:AB:0B:64:9B:A9:F3:CB:D9

    Signature Algorithm: sha256WithRSAEncryption
         6e:7e:65:3d:55:b0:b3:c3:1d:ec:36:e8:c1:b5:33:69:40:bd:
         c1:65:ea:60:31:49:0b:be:66:74:48:5f:f6:93:d6:63:ad:d3:
         df:7f:3e:6d:ee:ce:3f:29:fd:2c:07:70:ad:1c:07:22:4e:3e:
         f8:cf:37:14:27:26:15:7d:76:3b:05:f4:f8:76:bf:a4:69:2c:
         f4:5c:e6:4b:42:c6:70:8c:ba:ac:72:69:c2:88:21:15:e6:85:
         6d:bf:13:6f:52:1f:7e:0d:a4:86:0b:15:c3:11:a8:bc:22:c9:
         17:55:17:be:5f:04:01:a6:bb:44:02:52:01:aa:1e:df:26:e4:
         61:79:b5:3f:43:82:9d:ce:31:b3:6d:fb:49:29:fd:f3:10:4d:
         7f:2b:e8:f8:25:3b:6d:41:5f:ad:b9:79:c8:d2:64:62:28:98:
         e2:01:40:6b:69:ab:36:7e:ac:c6:a7:96:5d:73:67:aa:c9:a5:
         0d:68:9e:da:07:4b:fb:75:93:d9:62:d2:dd:9e:1d:06:ab:43:
         e0:dd:47:d2:40:58:aa:c3:70:55:38:dc:c3:b4:c4:37:aa:ef:
         f8:49:21:f0:e7:19:86:ca:d1:07:e4:c1:47:b1:c2:76:91:f0:
         c5:9d:cc:1a:1a:f5:01:29:48:71:03:2f:d1:25:4a:09:cc:d6:
         3b:a1:cd:90
-----BEGIN CERTIFICATE-----
MIIEHzCCAwegAwIBAgIBHjANBgkqhkiG9w0BAQsFADCBmDELMAkGA1UEBhMCVVMx
DTALBgNVBAgMBElvd2ExDTALBgNVBAcMBEFtZXMxEDAOBgNVBAoMBzMzMS5jb20x
ETAPBgNVBAsMCGhvbWV3b3JrMR8wHQYDVQQDDBZjZXJ0cy5ob21ld29yay4zMzEu
Y29tMSUwIwYJKoZIhvcNAQkBFhZjZXJ0c0Bob21ld29yay4zMzEuY29tMB4XDTIz
MTAyOTIxMjIwMloXDTI0MTAyODIxMjIwMlowgY8xCzAJBgNVBAYTAlVTMQ0wCwYD
VQQIDARJb3dhMRAwDgYDVQQKDAczMzEuY29tMREwDwYDVQQLDAhob21ld29yazEi
MCAGA1UEAwwZcmpsYXdzb24uaG9tZXdvcmsuMzMxLmNvbTEoMCYGCSqGSIb3DQEJ
ARYZcmpsYXdzb25AaG9tZXdvcmsuMzMxLmNvbTCCASIwDQYJKoZIhvcNAQEBBQAD
ggEPADCCAQoCggEBAISYcFkzAH96ZNW31zVWhAkQvYFQUxJCN85t33gcDi4sn0rA
Y8OtSXMvZzs//sNdVQQOs51iweiTMI242ZO/DERGciFo+r+om1HgvIMy3f5ZDLTf
9BjyJ+AV82c19VaZsAjgc+8P0OyzfZOM2O4hhhXTCr6ENr34MlXJfLeDxwG6v9OP
cP8/x4VkPj9TrznhKtTA9N7le3VeEA+t2TOiKtEyAjpHhwBZT+8EOV/gFEQLYkuI
eD9PuQOzZzfSZohU3bN/PXH8h3gHLkK49z40ox1/D6JVht1oZIzx9AoCAy05am4Z
QFiWrJ0sHiqC0KjJoITVEgZHcyypsKMt+psIorECAwEAAaN7MHkwCQYDVR0TBAIw
ADAsBglghkgBhvhCAQ0EHxYdT3BlblNTTCBHZW5lcmF0ZWQgQ2VydGlmaWNhdGUw
HQYDVR0OBBYEFCa7PLK5GLsqRJp0rtLDX+DMWdlUMB8GA1UdIwQYMBaAFLFY5MgV
wKLblckbaasLZJup88vZMA0GCSqGSIb3DQEBCwUAA4IBAQBufmU9VbCzwx3sNujB
tTNpQL3BZepgMUkLvmZ0SF/2k9ZjrdPffz5t7s4/Kf0sB3CtHAciTj74zzcUJyYV
fXY7BfT4dr+kaSz0XOZLQsZwjLqscmnCiCEV5oVtvxNvUh9+DaSGCxXDEai8IskX
VRe+XwQBprtEAlIBqh7fJuRhebU/Q4KdzjGzbftJKf3zEE1/K+j4JTttQV+tuXnI
0mRiKJjiAUBraas2fqzGp5Zdc2eqyaUNaJ7aB0v7dZPZYtLdnh0Gq0Pg3UfSQFiq
w3BVONzDtMQ3qu/4SSHw5xmGytEH5MFHscJ2kfDFncwaGvUBKUhxAy/RJUoJzNY7
oc2Q
-----END CERTIFICATE-----
